target datalayout = "e-m:e-p270:32:32-p271:32:32-p272:64:64-i64:64-i128:128-f80:128-n8:16:32:64-S128"
target triple = "x86_64-unknown-linux-gnu"

%class.aiVector3t = type { float, float, float }

; Function Attrs: mustprogress nounwind uwtable
define linkonce_odr hidden void @_ZN10aiVector3tIfEC2Ev(ptr noundef nonnull align 4 dereferenceable(12) %this) unnamed_addr #0 comdat align 2 {
entry:
  %this.addr = alloca ptr, align 8
  store ptr %this, ptr %this.addr, align 8
  %this1 = load ptr, ptr %this.addr, align 8
  %x = getelementptr inbounds %class.aiVector3t, ptr %this1, i32 0, i32 0
  store float 0.000000e+00, ptr %x, align 4
  %y = getelementptr inbounds %class.aiVector3t, ptr %this1, i32 0, i32 1
  store float 0.000000e+00, ptr %y, align 4
  %z = getelementptr inbounds %class.aiVector3t, ptr %this1, i32 0, i32 2
  store float 0.000000e+00, ptr %z, align 4
  ret void
}

; Function Attrs: mustprogress uwtable
define hidden { <2 x float>, float } @_ZN6Assimp11XFileParser11ReadVector3Ev(ptr noundef nonnull align 8 dereferenceable(56) %this) #2 align 2 {
entry:
  %retval = alloca %class.aiVector3t, align 4
  %this.addr = alloca ptr, align 8
  %retval.coerce = alloca { <2 x float>, float }, align 8
  store ptr %this, ptr %this.addr, align 8
  %this1 = load ptr, ptr %this.addr, align 8
  call void @_ZN10aiVector3tIfEC2Ev(ptr noundef nonnull align 4 dereferenceable(12) %retval) #16
  %call = call noundef float @_ZN6Assimp11XFileParser9ReadFloatEv(ptr noundef nonnull align 8 dereferenceable(56) %this1)
  %x = getelementptr inbounds %class.aiVector3t, ptr %retval, i32 0, i32 0
  store float %call, ptr %x, align 4
  %call2 = call noundef float @_ZN6Assimp11XFileParser9ReadFloatEv(ptr noundef nonnull align 8 dereferenceable(56) %this1)
  %y = getelementptr inbounds %class.aiVector3t, ptr %retval, i32 0, i32 1
  store float %call2, ptr %y, align 4
  %call3 = call noundef float @_ZN6Assimp11XFileParser9ReadFloatEv(ptr noundef nonnull align 8 dereferenceable(56) %this1)
  %z = getelementptr inbounds %class.aiVector3t, ptr %retval, i32 0, i32 2
  store float %call3, ptr %z, align 4
  call void @_ZN6Assimp11XFileParser16TestForSeparatorEv(ptr noundef nonnull align 8 dereferenceable(56) %this1)
  call void @llvm.memcpy.p0.p0.i64(ptr align 8 %retval.coerce, ptr align 4 %retval, i64 12, i1 false)
  %0 = load { <2 x float>, float }, ptr %retval.coerce, align 8
  ret { <2 x float>, float } %0
}