; Function Attrs: mustprogress uwtable
define hidden { <2 x float>, float } @_ZN6Assimp11XFileParser11ReadVector3Ev(ptr noundef nonnull align 8 dereferenceable(56) %this) local_unnamed_addr #0 align 2 {
entry:
  %call = tail call noundef float @_ZN6Assimp11XFileParser9ReadFloatEv(ptr noundef nonnull align 8 dereferenceable(56) %this)
  %retval.sroa.0.0.vec.insert = insertelement <2 x float> poison, float %call, i64 0
  %call2 = tail call noundef float @_ZN6Assimp11XFileParser9ReadFloatEv(ptr noundef nonnull align 8 dereferenceable(56) %this)
  %retval.sroa.0.4.vec.insert = insertelement <2 x float> %retval.sroa.0.0.vec.insert, float %call2, i64 1
  %call3 = tail call noundef float @_ZN6Assimp11XFileParser9ReadFloatEv(ptr noundef nonnull align 8 dereferenceable(56) %this)
  tail call void @_ZN6Assimp11XFileParser16TestForSeparatorEv(ptr noundef nonnull align 8 dereferenceable(56) %this)
  %.fca.0.insert = insertvalue { <2 x float>, float } poison, <2 x float> %retval.sroa.0.4.vec.insert, 0
  %.fca.1.insert = insertvalue { <2 x float>, float } %.fca.0.insert, float %call3, 1
  ret { <2 x float>, float } %.fca.1.insert
}